	.text
	.def	@feat.00;
	.scl	3;
	.type	0;
	.endef
	.globl	@feat.00
.set @feat.00, 0
	.file	"IntrinsicsBenchmark.cpp"
	.def	main;
	.scl	2;
	.type	32;
	.endef
	.globl	__ymm@4020000000000000401000000000000040000000000000003ff0000000000000
	.section	.rdata,"dr",discard,__ymm@4020000000000000401000000000000040000000000000003ff0000000000000
	.p2align	5, 0x0
__ymm@4020000000000000401000000000000040000000000000003ff0000000000000:
	.quad	0x3ff0000000000000
	.quad	0x4000000000000000
	.quad	0x4010000000000000
	.quad	0x4020000000000000
	.globl	__real@4000000000000000
	.section	.rdata,"dr",discard,__real@4000000000000000
	.p2align	3, 0x0
__real@4000000000000000:
	.quad	0x4000000000000000
	.globl	__ymm@c05e000000000000c04e000000000000c03e000000000000c02e000000000000
	.section	.rdata,"dr",discard,__ymm@c05e000000000000c04e000000000000c03e000000000000c02e000000000000
	.p2align	5, 0x0
__ymm@c05e000000000000c04e000000000000c03e000000000000c02e000000000000:
	.quad	0xc02e000000000000
	.quad	0xc03e000000000000
	.quad	0xc04e000000000000
	.quad	0xc05e000000000000
	.globl	__real@412e848000000000
	.section	.rdata,"dr",discard,__real@412e848000000000
	.p2align	3, 0x0
__real@412e848000000000:
	.quad	0x412e848000000000
	.section	.text,"xr",one_only,main
	.globl	main
	.p2align	4, 0x90
main:
.Lfunc_begin0:
	.cv_func_id 0
	.cv_file	1 "C:\\Users\\\320\230\320\262\320\260\320\275\\Desktop\\IntrinsicsBenchmark\\IntrinsicsBenchmark\\IntrinsicsBenchmark.cpp" "2179F6C7BA2159AE042893CA2BA2156C" 1
	.cv_loc	0 1 9 0
.seh_proc main
	pushq	%rbp
	.seh_pushreg %rbp
	pushq	%r15
	.seh_pushreg %r15
	pushq	%r14
	.seh_pushreg %r14
	pushq	%r13
	.seh_pushreg %r13
	pushq	%r12
	.seh_pushreg %r12
	pushq	%rsi
	.seh_pushreg %rsi
	pushq	%rdi
	.seh_pushreg %rdi
	pushq	%rbx
	.seh_pushreg %rbx
	subq	$344, %rsp
	.seh_stackalloc 344
	leaq	128(%rsp), %rbp
	.seh_setframe %rbp, 128
	vmovups	%xmm8, 192(%rbp)
	.seh_savexmm %xmm8, 320
	vmovups	%xmm7, 176(%rbp)
	.seh_savexmm %xmm7, 304
	vmovups	%xmm6, 160(%rbp)
	.seh_savexmm %xmm6, 288
	.seh_endprologue
	andq	$-32, %rsp
	movq	__security_cookie(%rip), %rax
	xorq	%rbp, %rax
	movq	%rax, 280(%rsp)
	vstmxcsr	224(%rsp)
	orl	$32832, 224(%rsp)
	vldmxcsr	224(%rsp)
.Ltmp0:
	.cv_loc	0 1 12 0
	vmovups	__ymm@4020000000000000401000000000000040000000000000003ff0000000000000(%rip), %ymm0
.Ltmp1:
	vmovups	%ymm0, 224(%rsp)
	.cv_loc	0 1 13 0
	vbroadcastsd	__real@4000000000000000(%rip), %ymm0
.Ltmp2:
	vmovups	%ymm0, 192(%rsp)
	.cv_loc	0 1 14 0
	vxorps	%xmm0, %xmm0, %xmm0
.Ltmp3:
	vmovups	%ymm0, 160(%rsp)
.Ltmp4:
	movq	%rsp, %rdi
	.cv_loc	0 1 15 0
	vmovups	%ymm0, 128(%rsp)
	.cv_loc	0 1 16 0
	vmovupd	__ymm@c05e000000000000c04e000000000000c03e000000000000c02e000000000000(%rip), %ymm0
.Ltmp5:
	vmovupd	%ymm0, 96(%rsp)
.Ltmp6:
	.cv_file	2 "C:\\Program Files\\Microsoft Visual Studio\\2022\\Enterprise\\VC\\Tools\\MSVC\\14.39.33519\\include\\__msvc_chrono.hpp" "1F38FB01ECF955BBE5DB7E8CD44E32E7" 1
	.cv_inline_site_id 1 within 0 inlined_at 1 18 0
	.cv_loc	1 2 679 0
	vzeroupper
.Ltmp7:
	callq	_Query_perf_frequency
	movq	%rax, %rsi
.Ltmp8:
	.cv_loc	1 2 680 0
	callq	_Query_perf_counter
.Ltmp9:
	.cv_loc	1 2 687 0
	cmpq	$10000000, %rsi
	jne	.LBB0_1
.Ltmp10:
	.cv_loc	1 2 693 0
	imulq	$100, %rax, %rsi
.Ltmp11:
.LBB0_10:
	.cv_loc	1 2 710 0
	movq	%rdi, %rsp
.Ltmp12:
	.cv_loc	0 1 19 0
	movl	"?ITERATIONS@@3JA"(%rip), %eax
	testl	%eax, %eax
	jle	.LBB0_12
.Ltmp13:
	decl	%eax
.Ltmp14:
	leaq	96(%rsp), %rcx
	movq	%rcx, 56(%rsp)
	leaq	128(%rsp), %rcx
	movq	%rcx, 48(%rsp)
	leaq	160(%rsp), %rcx
	movq	%rcx, 40(%rsp)
	leaq	192(%rsp), %rcx
	movq	%rcx, 32(%rsp)
	movq	%rax, 72(%rsp)
	movq	$0, 64(%rsp)
	leaq	.L.kmpc_loc.19.19.4(%rip), %rcx
	leaq	main.extracted(%rip), %r8
	leaq	224(%rsp), %r9
	movl	$7, %edx
	callq	__kmpc_fork_call
.Ltmp15:
.LBB0_12:
	.cv_inline_site_id 2 within 0 inlined_at 1 26 0
	.cv_loc	2 2 679 0
	movq	%rsp, %rbx
.Ltmp16:
	callq	_Query_perf_frequency
	movq	%rax, %rdi
.Ltmp17:
	.cv_loc	2 2 680 0
	callq	_Query_perf_counter
.Ltmp18:
	.cv_loc	2 2 687 0
	cmpq	$10000000, %rdi
	jne	.LBB0_13
.Ltmp19:
	.cv_loc	2 2 693 0
	imulq	$100, %rax, %rdi
.Ltmp20:
.LBB0_22:
	.cv_inline_site_id 3 within 0 inlined_at 1 30 0
	.cv_inline_site_id 4 within 3 inlined_at 2 549 0
	.cv_loc	4 2 291 0
	subq	%rsi, %rdi
.Ltmp21:
	.cv_loc	2 2 710 0
	movq	%rbx, %rsp
.Ltmp22:
	.cv_loc	0 1 32 0
	vmovsd	128(%rsp), %xmm1
	vmovsd	136(%rsp), %xmm8
	vmovsd	144(%rsp), %xmm7
	vmovsd	152(%rsp), %xmm6
	movq	"__imp_?cout@std@@3V?$basic_ostream@DU?$char_traits@D@std@@@1@A"(%rip), %rsi
.Ltmp23:
	movq	"__imp_??6?$basic_ostream@DU?$char_traits@D@std@@@std@@QEAAAEAV01@N@Z"(%rip), %rbx
	movq	%rsi, %rcx
	callq	*%rbx
	movq	%rbx, %r13
	movq	%rax, %rbx
.Ltmp24:
	.cv_file	3 "C:\\Program Files\\Microsoft Visual Studio\\2022\\Enterprise\\VC\\Tools\\MSVC\\14.39.33519\\include\\ostream" "10F8B9EA0A681489424FECD52A499C39" 1
	.cv_inline_site_id 5 within 0 inlined_at 1 32 0
	.cv_inline_site_id 6 within 5 inlined_at 3 191 0
	.cv_loc	6 3 1011 0
	movq	(%rax), %rax
	movslq	4(%rax), %rcx
	addq	%rbx, %rcx
	movq	"__imp_?widen@?$basic_ios@DU?$char_traits@D@std@@@std@@QEBADD@Z"(%rip), %r14
	movb	$10, %dl
	callq	*%r14
	movq	"__imp_?put@?$basic_ostream@DU?$char_traits@D@std@@@std@@QEAAAEAV12@D@Z"(%rip), %r15
	movq	%rbx, %rcx
	movl	%eax, %edx
	callq	*%r15
	.cv_loc	6 3 1012 0
	movq	"__imp_?flush@?$basic_ostream@DU?$char_traits@D@std@@@std@@QEAAAEAV12@XZ"(%rip), %r12
	movq	%rbx, %rcx
	callq	*%r12
.Ltmp25:
	.cv_loc	0 1 32 0
	movq	%rsi, %rcx
	vmovaps	%xmm8, %xmm1
	callq	*%r13
	movq	%rax, %rbx
.Ltmp26:
	.cv_loc	6 3 1011 0
	movq	(%rax), %rax
	movslq	4(%rax), %rcx
	addq	%rbx, %rcx
	movb	$10, %dl
	callq	*%r14
	movq	%rbx, %rcx
	movl	%eax, %edx
	callq	*%r15
	.cv_loc	6 3 1012 0
	movq	%rbx, %rcx
	callq	*%r12
.Ltmp27:
	.cv_loc	0 1 32 0
	movq	%rsi, %rcx
	vmovaps	%xmm7, %xmm1
	callq	*%r13
	movq	%rax, %rbx
.Ltmp28:
	.cv_loc	6 3 1011 0
	movq	(%rax), %rax
	movslq	4(%rax), %rcx
	addq	%rbx, %rcx
	movb	$10, %dl
	callq	*%r14
	movq	%rbx, %rcx
	movl	%eax, %edx
	callq	*%r15
	.cv_loc	6 3 1012 0
	movq	%rbx, %rcx
	callq	*%r12
.Ltmp29:
	.cv_loc	0 1 32 0
	movq	%rsi, %rcx
	vmovaps	%xmm6, %xmm1
	callq	*%r13
	movq	%rax, %rbx
.Ltmp30:
	.cv_loc	6 3 1011 0
	movq	(%rax), %rax
	movslq	4(%rax), %rcx
	addq	%rbx, %rcx
	movb	$10, %dl
	callq	*%r14
	movq	%rbx, %rcx
	movl	%eax, %edx
	callq	*%r15
	.cv_loc	6 3 1012 0
	movq	%rbx, %rcx
	callq	*%r12
.Ltmp31:
	movabsq	$4835703278458516699, %rcx
.Ltmp32:
	.cv_inline_site_id 7 within 0 inlined_at 1 30 0
	.cv_loc	7 2 440 0
	movq	%rdi, %rax
	imulq	%rcx
	movq	%rdx, %rdi
.Ltmp33:
	movq	%rdx, %rax
	shrq	$63, %rax
	sarq	$18, %rdi
	addq	%rax, %rdi
.Ltmp34:
	.cv_loc	0 1 35 0
	movl	"?ITERATIONS@@3JA"(%rip), %r13d
	shll	$3, %r13d
.Ltmp35:
	.cv_loc	0 1 36 0
	leaq	"??_C@_06ELNAEDJO@Time?3?5?$AA@"(%rip), %rdx
	movq	%rsi, %rcx
	callq	"??$?6U?$char_traits@D@std@@@std@@YAAEAV?$basic_ostream@DU?$char_traits@D@std@@@0@AEAV10@PEBD@Z"
	movq	%rax, %rcx
	movq	%rdi, %rdx
	callq	*"__imp_??6?$basic_ostream@DU?$char_traits@D@std@@@std@@QEAAAEAV01@_J@Z"(%rip)
	leaq	"??_C@_0P@KCFGMNPP@?5milliseconds?$DL?$AA@"(%rip), %rdx
	movq	%rax, %rcx
	callq	"??$?6U?$char_traits@D@std@@@std@@YAAEAV?$basic_ostream@DU?$char_traits@D@std@@@0@AEAV10@PEBD@Z"
	movq	%rax, %rbx
.Ltmp36:
	.cv_inline_site_id 8 within 0 inlined_at 1 36 0
	.cv_inline_site_id 9 within 8 inlined_at 3 191 0
	.cv_loc	9 3 1011 0
	movq	(%rax), %rax
	movslq	4(%rax), %rcx
	addq	%rbx, %rcx
	movb	$10, %dl
	callq	*%r14
	movq	%rbx, %rcx
	movl	%eax, %edx
	callq	*%r15
	.cv_loc	9 3 1012 0
	movq	%rbx, %rcx
	callq	*%r12
.Ltmp37:
	.cv_loc	0 1 37 0
	leaq	"??_C@_0O@KOPJABAP@Performance?3?5?$AA@"(%rip), %rdx
	movq	%rsi, %rcx
	callq	"??$?6U?$char_traits@D@std@@@std@@YAAEAV?$basic_ostream@DU?$char_traits@D@std@@@0@AEAV10@PEBD@Z"
	vcvtsi2sd	%r13d, %xmm2, %xmm0
	vcvtsi2sd	%rdi, %xmm2, %xmm1
	vmulsd	__real@412e848000000000(%rip), %xmm1, %xmm1
	vdivsd	%xmm1, %xmm0, %xmm1
	movq	%rax, %rcx
	callq	*"__imp_??6?$basic_ostream@DU?$char_traits@D@std@@@std@@QEAAAEAV01@N@Z"(%rip)
	leaq	"??_C@_07JIFIDNEC@?5GFLOPS?$AA@"(%rip), %rdx
	movq	%rax, %rcx
	callq	"??$?6U?$char_traits@D@std@@@std@@YAAEAV?$basic_ostream@DU?$char_traits@D@std@@@0@AEAV10@PEBD@Z"
	movq	%rax, %rsi
.Ltmp38:
	.cv_inline_site_id 10 within 0 inlined_at 1 37 0
	.cv_inline_site_id 11 within 10 inlined_at 3 191 0
	.cv_loc	11 3 1011 0
	movq	(%rax), %rax
	movslq	4(%rax), %rcx
	addq	%rsi, %rcx
	movb	$10, %dl
	callq	*%r14
	movq	%rsi, %rcx
	movl	%eax, %edx
	callq	*%r15
	.cv_loc	11 3 1012 0
	movq	%rsi, %rcx
	callq	*%r12
.Ltmp39:
	.cv_loc	0 1 38 0
	leaq	"??_C@_05PDJBBECF@pause?$AA@"(%rip), %rcx
	callq	*__imp_system(%rip)
	leaq	.L.kmpc_loc.0.0(%rip), %rcx
	callq	__kmpc_end
	movq	280(%rsp), %rcx
	xorq	%rbp, %rcx
	callq	__security_check_cookie
	.cv_loc	0 1 39 0
	xorl	%eax, %eax
	vmovups	160(%rbp), %xmm6
	vmovups	176(%rbp), %xmm7
	vmovups	192(%rbp), %xmm8
	leaq	216(%rbp), %rsp
	popq	%rbx
.Ltmp40:
	popq	%rdi
.Ltmp41:
	popq	%rsi
.Ltmp42:
	popq	%r12
	popq	%r13
.Ltmp43:
	popq	%r14
	popq	%r15
	popq	%rbp
	retq
.Ltmp44:
.LBB0_1:
	.cv_loc	1 2 687 0
	cmpq	$24000000, %rsi
	jne	.LBB0_3
.Ltmp45:
	.cv_loc	1 2 697 0
	movabsq	$-5551535331153507085, %r9
	movq	%rax, %rcx
.Ltmp46:
	imulq	%r9
.Ltmp47:
	movq	%rdx, %r8
	addq	%rcx, %r8
	movq	%r8, %rax
	shrq	$63, %rax
	sarq	$24, %r8
	addq	%rax, %r8
.Ltmp48:
	imulq	$24000000, %r8, %rax
	subq	%rax, %rcx
.Ltmp49:
	imulq	$1000000000, %rcx, %rcx
	movq	%rcx, %rax
	imulq	%r9
	movq	%rdx, %rsi
.Ltmp50:
	.cv_loc	1 2 696 0
	imulq	$1000000000, %r8, %rax
.Ltmp51:
	.cv_loc	1 2 697 0
	addq	%rcx, %rsi
	movq	%rsi, %rcx
	shrq	$63, %rcx
	sarq	$24, %rsi
	addq	%rcx, %rsi
.Ltmp52:
	.cv_loc	1 2 698 0
	addq	%rax, %rsi
.Ltmp53:
	jmp	.LBB0_10
.Ltmp54:
.LBB0_13:
	.cv_loc	2 2 687 0
	cmpq	$24000000, %rdi
	jne	.LBB0_15
.Ltmp55:
	.cv_loc	2 2 697 0
	movabsq	$-5551535331153507085, %r9
	movq	%rax, %rcx
.Ltmp56:
	imulq	%r9
.Ltmp57:
	movq	%rdx, %r8
	addq	%rcx, %r8
	movq	%r8, %rax
	shrq	$63, %rax
	sarq	$24, %r8
	addq	%rax, %r8
.Ltmp58:
	imulq	$24000000, %r8, %rax
	subq	%rax, %rcx
.Ltmp59:
	imulq	$1000000000, %rcx, %rcx
	movq	%rcx, %rax
	imulq	%r9
	movq	%rdx, %rdi
.Ltmp60:
	.cv_loc	2 2 696 0
	imulq	$1000000000, %r8, %rax
.Ltmp61:
	.cv_loc	2 2 697 0
	addq	%rcx, %rdi
	movq	%rdi, %rcx
	shrq	$63, %rcx
	sarq	$24, %rdi
	addq	%rcx, %rdi
.Ltmp62:
	.cv_loc	2 2 698 0
	addq	%rax, %rdi
.Ltmp63:
	jmp	.LBB0_22
.Ltmp64:
.LBB0_3:
	.cv_loc	1 2 705 0
	movq	%rax, %rcx
	orq	%rsi, %rcx
	shrq	$32, %rcx
	je	.LBB0_4
.Ltmp65:
	cqto
.Ltmp66:
	idivq	%rsi
	jmp	.LBB0_6
.Ltmp67:
.LBB0_15:
	.cv_loc	2 2 705 0
	movq	%rax, %rcx
	orq	%rdi, %rcx
	shrq	$32, %rcx
	je	.LBB0_16
.Ltmp68:
	cqto
.Ltmp69:
	idivq	%rdi
	jmp	.LBB0_18
.Ltmp70:
.LBB0_4:
	.cv_loc	1 2 705 0
	xorl	%edx, %edx
	divl	%esi
.Ltmp71:
.LBB0_6:
	imulq	$1000000000, %rax, %rcx
.Ltmp72:
	.cv_loc	1 2 706 0
	imulq	$1000000000, %rdx, %rax
	movq	%rsi, %rdx
	orq	%rax, %rdx
	shrq	$32, %rdx
	je	.LBB0_7
.Ltmp73:
	cqto
	idivq	%rsi
	movq	%rax, %rsi
.Ltmp74:
	jmp	.LBB0_9
.Ltmp75:
.LBB0_16:
	.cv_loc	2 2 705 0
	xorl	%edx, %edx
	divl	%edi
.Ltmp76:
.LBB0_18:
	imulq	$1000000000, %rax, %rcx
.Ltmp77:
	.cv_loc	2 2 706 0
	imulq	$1000000000, %rdx, %rax
	movq	%rdi, %rdx
	orq	%rax, %rdx
	shrq	$32, %rdx
	je	.LBB0_19
.Ltmp78:
	cqto
	idivq	%rdi
	movq	%rax, %rdi
.Ltmp79:
	jmp	.LBB0_21
.Ltmp80:
.LBB0_7:
	.cv_loc	1 2 706 0
	xorl	%edx, %edx
	divl	%esi
	movl	%eax, %esi
.Ltmp81:
.LBB0_9:
	.cv_loc	1 2 707 0
	addq	%rcx, %rsi
.Ltmp82:
	jmp	.LBB0_10
.Ltmp83:
.LBB0_19:
	.cv_loc	2 2 706 0
	xorl	%edx, %edx
	divl	%edi
	movl	%eax, %edi
.Ltmp84:
.LBB0_21:
	.cv_loc	2 2 707 0
	addq	%rcx, %rdi
.Ltmp85:
	jmp	.LBB0_22
.Ltmp86:
.Lfunc_end0:
	.seh_endproc

	.def	"??$?6U?$char_traits@D@std@@@std@@YAAEAV?$basic_ostream@DU?$char_traits@D@std@@@0@AEAV10@PEBD@Z";
	.scl	2;
	.type	32;
	.endef
	.section	.text,"xr",discard,"??$?6U?$char_traits@D@std@@@std@@YAAEAV?$basic_ostream@DU?$char_traits@D@std@@@0@AEAV10@PEBD@Z"
	.globl	"??$?6U?$char_traits@D@std@@@std@@YAAEAV?$basic_ostream@DU?$char_traits@D@std@@@0@AEAV10@PEBD@Z"
	.p2align	4, 0x90
"??$?6U?$char_traits@D@std@@@std@@YAAEAV?$basic_ostream@DU?$char_traits@D@std@@@0@AEAV10@PEBD@Z":
.Lfunc_begin1:
	.cv_func_id 12
	.cv_loc	12 3 766 0
.seh_proc "??$?6U?$char_traits@D@std@@@std@@YAAEAV?$basic_ostream@DU?$char_traits@D@std@@@0@AEAV10@PEBD@Z"
	.seh_handler __CxxFrameHandler3, @unwind, @except
	pushq	%rbp
	.seh_pushreg %rbp
	pushq	%r15
	.seh_pushreg %r15
	pushq	%r14
	.seh_pushreg %r14
	pushq	%rsi
	.seh_pushreg %rsi
	pushq	%rdi
	.seh_pushreg %rdi
	pushq	%rbx
	.seh_pushreg %rbx
	subq	$72, %rsp
	.seh_stackalloc 72
	leaq	64(%rsp), %rbp
	.seh_setframe %rbp, 64
	.seh_endprologue
	movq	$-2, (%rbp)
	movq	%rdx, %rdi
	movq	%rcx, %r15
.Ltmp101:
	.cv_file	4 "C:\\Program Files\\Microsoft Visual Studio\\2022\\Enterprise\\VC\\Tools\\MSVC\\14.39.33519\\include\\xstring" "82CCE7FA2B47DF84739F6D6164E3803F" 1
	.cv_inline_site_id 13 within 12 inlined_at 3 772 0
	.cv_loc	13 4 398 0
	movq	%rdx, %rcx
.Ltmp102:
	callq	strlen
.Ltmp103:
	movq	%rax, %rsi
.Ltmp104:
	.cv_loc	12 3 773 0
	movq	(%r15), %rax
	movslq	4(%rax), %rcx
.Ltmp105:
	.cv_file	5 "C:\\Program Files\\Microsoft Visual Studio\\2022\\Enterprise\\VC\\Tools\\MSVC\\14.39.33519\\include\\xiosbase" "A9A6E1B9687D23A07817B3100FDB8427" 1
	.cv_inline_site_id 14 within 12 inlined_at 3 773 0
	.cv_loc	14 5 280 0
	movq	40(%r15,%rcx), %rax
	xorl	%edx, %edx
.Ltmp106:
	.cv_loc	12 3 773 0
	movq	%rax, %r14
	subq	%rsi, %r14
	movl	$0, %ebx
	cmovgq	%r14, %rbx
	testq	%rax, %rax
	cmovleq	%rdx, %rbx
.Ltmp107:
	.cv_inline_site_id 15 within 12 inlined_at 3 774 0
	.cv_inline_site_id 16 within 15 inlined_at 3 96 0
	.cv_loc	16 3 75 0
	movq	%r15, -32(%rbp)
.Ltmp108:
	.cv_file	6 "C:\\Program Files\\Microsoft Visual Studio\\2022\\Enterprise\\VC\\Tools\\MSVC\\14.39.33519\\include\\ios" "18F7C9A507B814F4764E58C39A966E8E" 1
	.cv_inline_site_id 17 within 16 inlined_at 3 76 0
	.cv_loc	17 6 78 0
	movq	72(%r15,%rcx), %rax
.Ltmp109:
	.cv_loc	16 3 77 0
	testq	%rax, %rax
	je	.LBB1_2
.Ltmp110:
	.cv_loc	16 3 78 0
	movq	(%rax), %rdx
	movq	%rax, %rcx
	callq	*8(%rdx)
.Ltmp111:
	.cv_loc	15 3 97 0
	movq	(%r15), %rax
	movslq	4(%rax), %rcx
.Ltmp112:
.LBB1_2:
	addq	%r15, %rcx
	callq	*"__imp_?good@ios_base@std@@QEBA_NXZ"(%rip)
	testb	%al, %al
	movq	%r15, -8(%rbp)
.Ltmp113:
	je	.LBB1_3
.Ltmp114:
	.cv_loc	15 3 102 0
	movq	(%r15), %rax
	movslq	4(%rax), %rcx
.Ltmp115:
	.cv_inline_site_id 18 within 15 inlined_at 3 102 0
	.cv_loc	18 6 68 0
	movq	80(%r15,%rcx), %rcx
.Ltmp116:
	.cv_loc	15 3 103 0
	testq	%rcx, %rcx
	je	.LBB1_12
.Ltmp117:
	cmpq	%r15, %rcx
	je	.LBB1_12
.Ltmp118:
	.cv_loc	15 3 108 0
.Ltmp87:
	callq	*"__imp_?flush@?$basic_ostream@DU?$char_traits@D@std@@@std@@QEAAAEAV12@XZ"(%rip)
.Ltmp119:
.Ltmp88:
	.cv_loc	15 3 109 0
	movq	(%r15), %rax
	movslq	4(%rax), %rcx
	addq	%r15, %rcx
	callq	*"__imp_?good@ios_base@std@@QEBA_NXZ"(%rip)
	movb	%al, -24(%rbp)
	movl	$4, -12(%rbp)
.Ltmp120:
	.cv_loc	12 3 776 0
	testb	%al, %al
	je	.LBB1_4
.Ltmp121:
	.cv_loc	12 3 780 0
	movq	-8(%rbp), %r15
.Ltmp122:
	movq	(%r15), %rax
	jmp	.LBB1_17
.Ltmp123:
.LBB1_3:
	.cv_loc	15 3 98 0
	movb	$0, -24(%rbp)
	movl	$4, -12(%rbp)
	jmp	.LBB1_4
.Ltmp124:
.LBB1_12:
	.cv_loc	15 3 104 0
	movb	$1, -24(%rbp)
.Ltmp125:
.LBB1_17:
	.cv_loc	12 3 780 0
	movslq	4(%rax), %rax
	movl	$448, %ecx
	andl	24(%r15,%rax), %ecx
	cmpl	$64, %ecx
	je	.LBB1_26
.Ltmp126:
	testq	%rbx, %rbx
	jle	.LBB1_26
.Ltmp127:
	movq	"__imp_?sputc@?$basic_streambuf@DU?$char_traits@D@std@@@std@@QEAAHD@Z"(%rip), %rbx
.Ltmp128:
	.p2align	4, 0x90
.LBB1_20:
	.cv_loc	12 3 782 0
	movq	(%r15), %rax
	movslq	4(%rax), %rax
.Ltmp129:
	.cv_inline_site_id 19 within 12 inlined_at 3 782 0
	.cv_loc	19 6 78 0
	movq	72(%r15,%rax), %rcx
.Ltmp130:
	.cv_inline_site_id 20 within 12 inlined_at 3 782 0
	.cv_loc	20 6 99 0
	movzbl	88(%r15,%rax), %edx
.Ltmp131:
	.cv_loc	12 3 782 0
.Ltmp89:
	callq	*%rbx
.Ltmp132:
.Ltmp90:
	.cv_inline_site_id 21 within 12 inlined_at 3 782 0
	.cv_loc	21 4 464 0
	cmpl	$-1, %eax
.Ltmp133:
	.cv_loc	12 3 782 0
	je	.LBB1_22
.Ltmp134:
	.cv_loc	12 3 781 0
	leaq	-1(%r14), %rax
.Ltmp135:
	.cv_loc	12 3 781 0
	cmpq	$1, %r14
	movq	%rax, %r14
.Ltmp136:
	movq	-8(%rbp), %r15
	jg	.LBB1_20
.Ltmp137:
	.cv_loc	12 3 789 0
	movq	(%r15), %rax
	movslq	4(%rax), %rax
	xorl	%ebx, %ebx
.Ltmp138:
.LBB1_26:
	.cv_inline_site_id 22 within 12 inlined_at 3 789 0
	.cv_loc	22 6 78 0
	movq	72(%r15,%rax), %rcx
.Ltmp139:
	.cv_file	7 "C:\\Program Files\\Microsoft Visual Studio\\2022\\Enterprise\\VC\\Tools\\MSVC\\14.39.33519\\include\\streambuf" "DCCB1AC684312409303E4D66E7083699" 1
	.cv_inline_site_id 23 within 12 inlined_at 3 789 0
	.cv_loc	23 7 171 0
	movq	(%rcx), %rax
.Ltmp140:
.Ltmp91:
	movq	%rdi, %rdx
	movq	%rsi, %r8
	callq	*72(%rax)
.Ltmp141:
.Ltmp92:
	.cv_loc	12 3 789 0
	cmpq	%rsi, %rax
	jne	.LBB1_22
.Ltmp142:
	.cv_loc	12 3 793 0
	testq	%rbx, %rbx
	movq	-8(%rbp), %rdx
	jle	.LBB1_33
.Ltmp143:
	movq	"__imp_?sputc@?$basic_streambuf@DU?$char_traits@D@std@@@std@@QEAAHD@Z"(%rip), %rsi
.Ltmp144:
	.p2align	4, 0x90
.LBB1_30:
	.cv_loc	12 3 795 0
	movq	(%rdx), %rax
	movslq	4(%rax), %rax
.Ltmp145:
	.cv_inline_site_id 24 within 12 inlined_at 3 795 0
	.cv_loc	24 6 78 0
	movq	72(%rdx,%rax), %rcx
.Ltmp146:
	.cv_inline_site_id 25 within 12 inlined_at 3 795 0
	.cv_loc	25 6 99 0
	movzbl	88(%rdx,%rax), %edx
.Ltmp147:
	.cv_loc	12 3 795 0
.Ltmp93:
	callq	*%rsi
.Ltmp148:
.Ltmp94:
	.cv_inline_site_id 26 within 12 inlined_at 3 795 0
	.cv_loc	26 4 464 0
	cmpl	$-1, %eax
	je	.LBB1_22
.Ltmp149:
	.cv_loc	12 3 794 0
	leaq	-1(%rbx), %rax
.Ltmp150:
	.cv_loc	12 3 794 0
	cmpq	$1, %rbx
	movq	%rax, %rbx
.Ltmp151:
	movq	-8(%rbp), %rdx
	jg	.LBB1_30
.Ltmp152:
.LBB1_33:
	xorl	%eax, %eax
	jmp	.LBB1_23
.Ltmp153:
.LBB1_22:
	movl	$4, %eax
	movq	-8(%rbp), %rdx
.Ltmp154:
.LBB1_23:
	.cv_loc	12 3 802 0
	movl	%eax, -12(%rbp)
.Ltmp155:
	movq	(%rdx), %rax
	movslq	4(%rax), %rax
.Ltmp156:
	.cv_inline_site_id 27 within 12 inlined_at 3 802 0
	.cv_loc	27 5 286 0
	movq	$0, 40(%rdx,%rax)
.Ltmp157:
.LBB1_4:
$ehgcr_1_4:
	.cv_loc	12 3 806 0
	movq	-8(%rbp), %r8
	movq	(%r8), %rax
	movslq	4(%rax), %rax
	leaq	(%r8,%rax), %rcx
.Ltmp158:
	movl	-12(%rbp), %edx
.Ltmp159:
	.cv_inline_site_id 28 within 12 inlined_at 3 806 0
	.cv_loc	28 6 51 0
	orl	16(%r8,%rax), %edx
.Ltmp97:
	xorl	%r8d, %r8d
	callq	*"__imp_?clear@?$basic_ios@DU?$char_traits@D@std@@@std@@QEAAXH_N@Z"(%rip)
.Ltmp160:
.Ltmp98:
	.cv_inline_site_id 29 within 12 inlined_at 3 808 0
	.cv_loc	29 3 117 0
	callq	"?uncaught_exception@std@@YA_NXZ"
.Ltmp161:
	.cv_inline_site_id 30 within 29 inlined_at 3 125 0
	.cv_loc	30 3 83 0
	movq	-32(%rbp), %rsi
.Ltmp162:
	.cv_loc	29 3 122 0
	testb	%al, %al
	jne	.LBB1_7
.Ltmp163:
	.cv_loc	29 3 123 0
	movq	%rsi, %rcx
	callq	*"__imp_?_Osfx@?$basic_ostream@DU?$char_traits@D@std@@@std@@QEAAXXZ"(%rip)
.Ltmp164:
.LBB1_7:
	.cv_loc	30 3 83 0
	movq	(%rsi), %rax
	movslq	4(%rax), %rax
.Ltmp165:
	.cv_inline_site_id 31 within 30 inlined_at 3 83 0
	.cv_loc	31 6 78 0
	movq	72(%rsi,%rax), %rcx
.Ltmp166:
	.cv_loc	30 3 84 0
	testq	%rcx, %rcx
	movq	-8(%rbp), %rsi
.Ltmp167:
	je	.LBB1_9
.Ltmp168:
	.cv_loc	30 3 85 0
	movq	(%rcx), %rax
.Ltmp99:
	callq	*16(%rax)
.Ltmp169:
.Ltmp100:
.LBB1_9:
	.cv_loc	12 3 808 0
	movq	%rsi, %rax
	addq	$72, %rsp
	popq	%rbx
	popq	%rdi
	popq	%rsi
	popq	%r14
	popq	%r15
	popq	%rbp
	retq
.Ltmp170:
	.seh_handlerdata
	.long	("$cppxdata$??$?6U?$char_traits@D@std@@@std@@YAAEAV?$basic_ostream@DU?$char_traits@D@std@@@0@AEAV10@PEBD@Z")@IMGREL
	.section	.text,"xr",discard,"??$?6U?$char_traits@D@std@@@std@@YAAEAV?$basic_ostream@DU?$char_traits@D@std@@@0@AEAV10@PEBD@Z"
	.seh_endproc
	.def	"?dtor$13@?0???$?6U?$char_traits@D@std@@@std@@YAAEAV?$basic_ostream@DU?$char_traits@D@std@@@0@AEAV10@PEBD@Z@4HA";
	.scl	3;
	.type	32;
	.endef
	.p2align	4, 0x90
"?dtor$13@?0???$?6U?$char_traits@D@std@@@std@@YAAEAV?$basic_ostream@DU?$char_traits@D@std@@@0@AEAV10@PEBD@Z@4HA":
.seh_proc "?dtor$13@?0???$?6U?$char_traits@D@std@@@std@@YAAEAV?$basic_ostream@DU?$char_traits@D@std@@@0@AEAV10@PEBD@Z@4HA"
.LBB1_13:
	movq	%rdx, 16(%rsp)
	pushq	%rbp
	.seh_pushreg %rbp
	pushq	%r15
	.seh_pushreg %r15
	pushq	%r14
	.seh_pushreg %r14
	pushq	%rsi
	.seh_pushreg %rsi
	pushq	%rdi
	.seh_pushreg %rdi
	pushq	%rbx
	.seh_pushreg %rbx
	subq	$40, %rsp
	.seh_stackalloc 40
	leaq	64(%rdx), %rbp
.Ltmp171:
	.seh_endprologue
	leaq	-32(%rbp), %rcx
.Ltmp172:
	.cv_loc	15 3 110 0
	callq	"??1_Sentry_base@?$basic_ostream@DU?$char_traits@D@std@@@std@@QEAA@XZ"
	nop
	addq	$40, %rsp
	popq	%rbx
.Ltmp173:
	popq	%rdi
.Ltmp174:
	popq	%rsi
.Ltmp175:
	popq	%r14
	popq	%r15
	popq	%rbp
	retq
.Ltmp176:
	.seh_handlerdata
	.section	.text,"xr",discard,"??$?6U?$char_traits@D@std@@@std@@YAAEAV?$basic_ostream@DU?$char_traits@D@std@@@0@AEAV10@PEBD@Z"
	.seh_endproc
	.def	"?catch$34@?0???$?6U?$char_traits@D@std@@@std@@YAAEAV?$basic_ostream@DU?$char_traits@D@std@@@0@AEAV10@PEBD@Z@4HA";
	.scl	3;
	.type	32;
	.endef
	.p2align	4, 0x90
"?catch$34@?0???$?6U?$char_traits@D@std@@@std@@YAAEAV?$basic_ostream@DU?$char_traits@D@std@@@0@AEAV10@PEBD@Z@4HA":
.seh_proc "?catch$34@?0???$?6U?$char_traits@D@std@@@std@@YAAEAV?$basic_ostream@DU?$char_traits@D@std@@@0@AEAV10@PEBD@Z@4HA"
	.seh_handler __CxxFrameHandler3, @unwind, @except
.LBB1_34:
	movq	%rdx, 16(%rsp)
	pushq	%rbp
	.seh_pushreg %rbp
	pushq	%r15
	.seh_pushreg %r15
	pushq	%r14
	.seh_pushreg %r14
	pushq	%rsi
	.seh_pushreg %rsi
	pushq	%rdi
	.seh_pushreg %rdi
	pushq	%rbx
	.seh_pushreg %rbx
	subq	$40, %rsp
	.seh_stackalloc 40
	leaq	64(%rdx), %rbp
.Ltmp177:
	.seh_endprologue
	movq	-8(%rbp), %rdx
.Ltmp178:
	.cv_loc	12 3 803 0
	movq	(%rdx), %rax
	movslq	4(%rax), %rax
	leaq	(%rdx,%rax), %rcx
.Ltmp179:
	.cv_inline_site_id 32 within 12 inlined_at 3 803 0
	.cv_inline_site_id 33 within 32 inlined_at 6 51 0
	.cv_loc	33 5 189 0
	movl	16(%rdx,%rax), %edx
.Ltmp180:
	.cv_loc	32 6 51 0
	orl	$4, %edx
.Ltmp95:
	movb	$1, %r8b
	callq	*"__imp_?clear@?$basic_ios@DU?$char_traits@D@std@@@std@@QEAAXH_N@Z"(%rip)
.Ltmp181:
.Ltmp96:
	.cv_loc	12 3 803 0
	movl	$0, -12(%rbp)
	leaq	.LBB1_4(%rip), %rax
	addq	$40, %rsp
	popq	%rbx
	popq	%rdi
.Ltmp182:
	popq	%rsi
	popq	%r14
	popq	%r15
	popq	%rbp
	retq
.Ltmp183:
	.seh_handlerdata
	.long	("$cppxdata$??$?6U?$char_traits@D@std@@@std@@YAAEAV?$basic_ostream@DU?$char_traits@D@std@@@0@AEAV10@PEBD@Z")@IMGREL
	.section	.text,"xr",discard,"??$?6U?$char_traits@D@std@@@std@@YAAEAV?$basic_ostream@DU?$char_traits@D@std@@@0@AEAV10@PEBD@Z"
	.seh_endproc
	.def	"?dtor$36@?0???$?6U?$char_traits@D@std@@@std@@YAAEAV?$basic_ostream@DU?$char_traits@D@std@@@0@AEAV10@PEBD@Z@4HA";
	.scl	3;
	.type	32;
	.endef
	.p2align	4, 0x90
"?dtor$36@?0???$?6U?$char_traits@D@std@@@std@@YAAEAV?$basic_ostream@DU?$char_traits@D@std@@@0@AEAV10@PEBD@Z@4HA":
.seh_proc "?dtor$36@?0???$?6U?$char_traits@D@std@@@std@@YAAEAV?$basic_ostream@DU?$char_traits@D@std@@@0@AEAV10@PEBD@Z@4HA"
.LBB1_36:
	movq	%rdx, 16(%rsp)
	pushq	%rbp
	.seh_pushreg %rbp
.Ltmp184:
	pushq	%r15
	.seh_pushreg %r15
	pushq	%r14
	.seh_pushreg %r14
	pushq	%rsi
	.seh_pushreg %rsi
	pushq	%rdi
	.seh_pushreg %rdi
	pushq	%rbx
	.seh_pushreg %rbx
	subq	$40, %rsp
	.seh_stackalloc 40
	leaq	64(%rdx), %rbp
.Ltmp185:
	.seh_endprologue
	.cv_loc	30 3 85 0
	callq	__std_terminate
	int3
.Ltmp186:
	.seh_handlerdata
	.section	.text,"xr",discard,"??$?6U?$char_traits@D@std@@@std@@YAAEAV?$basic_ostream@DU?$char_traits@D@std@@@0@AEAV10@PEBD@Z"
	.seh_endproc
	.def	"?dtor$37@?0???$?6U?$char_traits@D@std@@@std@@YAAEAV?$basic_ostream@DU?$char_traits@D@std@@@0@AEAV10@PEBD@Z@4HA";
	.scl	3;
	.type	32;
	.endef
	.p2align	4, 0x90
"?dtor$37@?0???$?6U?$char_traits@D@std@@@std@@YAAEAV?$basic_ostream@DU?$char_traits@D@std@@@0@AEAV10@PEBD@Z@4HA":
.seh_proc "?dtor$37@?0???$?6U?$char_traits@D@std@@@std@@YAAEAV?$basic_ostream@DU?$char_traits@D@std@@@0@AEAV10@PEBD@Z@4HA"
.LBB1_37:
	movq	%rdx, 16(%rsp)
	pushq	%rbp
	.seh_pushreg %rbp
	pushq	%r15
	.seh_pushreg %r15
	pushq	%r14
	.seh_pushreg %r14
	pushq	%rsi
	.seh_pushreg %rsi
	pushq	%rdi
	.seh_pushreg %rdi
	pushq	%rbx
	.seh_pushreg %rbx
	subq	$40, %rsp
	.seh_stackalloc 40
	leaq	64(%rdx), %rbp
.Ltmp187:
	.seh_endprologue
	leaq	-32(%rbp), %rcx
	.cv_loc	12 3 808 0
	callq	"??1sentry@?$basic_ostream@DU?$char_traits@D@std@@@std@@QEAA@XZ"
	nop
	addq	$40, %rsp
	popq	%rbx
	popq	%rdi
	popq	%rsi
	popq	%r14
	popq	%r15
	popq	%rbp
	retq
.Ltmp188:
.Lfunc_end1:
	.seh_handlerdata
	.section	.text,"xr",discard,"??$?6U?$char_traits@D@std@@@std@@YAAEAV?$basic_ostream@DU?$char_traits@D@std@@@0@AEAV10@PEBD@Z"
	.seh_endproc
	.section	.xdata,"dr",associative,"??$?6U?$char_traits@D@std@@@std@@YAAEAV?$basic_ostream@DU?$char_traits@D@std@@@0@AEAV10@PEBD@Z"
	.p2align	2, 0x0
"$cppxdata$??$?6U?$char_traits@D@std@@@std@@YAAEAV?$basic_ostream@DU?$char_traits@D@std@@@0@AEAV10@PEBD@Z":
	.long	429065506
	.long	5
	.long	("$stateUnwindMap$??$?6U?$char_traits@D@std@@@std@@YAAEAV?$basic_ostream@DU?$char_traits@D@std@@@0@AEAV10@PEBD@Z")@IMGREL
	.long	1
	.long	("$tryMap$??$?6U?$char_traits@D@std@@@std@@YAAEAV?$basic_ostream@DU?$char_traits@D@std@@@0@AEAV10@PEBD@Z")@IMGREL
	.long	7
	.long	("$ip2state$??$?6U?$char_traits@D@std@@@std@@YAAEAV?$basic_ostream@DU?$char_traits@D@std@@@0@AEAV10@PEBD@Z")@IMGREL
	.long	64
	.long	0
	.long	1
"$stateUnwindMap$??$?6U?$char_traits@D@std@@@std@@YAAEAV?$basic_ostream@DU?$char_traits@D@std@@@0@AEAV10@PEBD@Z":
	.long	-1
	.long	"?dtor$13@?0???$?6U?$char_traits@D@std@@@std@@YAAEAV?$basic_ostream@DU?$char_traits@D@std@@@0@AEAV10@PEBD@Z@4HA"@IMGREL
	.long	-1
	.long	"?dtor$36@?0???$?6U?$char_traits@D@std@@@std@@YAAEAV?$basic_ostream@DU?$char_traits@D@std@@@0@AEAV10@PEBD@Z@4HA"@IMGREL
	.long	-1
	.long	"?dtor$37@?0???$?6U?$char_traits@D@std@@@std@@YAAEAV?$basic_ostream@DU?$char_traits@D@std@@@0@AEAV10@PEBD@Z@4HA"@IMGREL
	.long	2
	.long	0
	.long	2
	.long	0
"$tryMap$??$?6U?$char_traits@D@std@@@std@@YAAEAV?$basic_ostream@DU?$char_traits@D@std@@@0@AEAV10@PEBD@Z":
	.long	3
	.long	3
	.long	4
	.long	1
	.long	("$handlerMap$0$??$?6U?$char_traits@D@std@@@std@@YAAEAV?$basic_ostream@DU?$char_traits@D@std@@@0@AEAV10@PEBD@Z")@IMGREL
"$handlerMap$0$??$?6U?$char_traits@D@std@@@std@@YAAEAV?$basic_ostream@DU?$char_traits@D@std@@@0@AEAV10@PEBD@Z":
	.long	64
	.long	0
	.long	0
	.long	"?catch$34@?0???$?6U?$char_traits@D@std@@@std@@YAAEAV?$basic_ostream@DU?$char_traits@D@std@@@0@AEAV10@PEBD@Z@4HA"@IMGREL
	.long	104
"$ip2state$??$?6U?$char_traits@D@std@@@std@@YAAEAV?$basic_ostream@DU?$char_traits@D@std@@@0@AEAV10@PEBD@Z":
	.long	.Lfunc_begin1@IMGREL
	.long	-1
	.long	.Ltmp87@IMGREL+1
	.long	0
	.long	.Ltmp89@IMGREL+1
	.long	3
	.long	.Ltmp97@IMGREL+1
	.long	2
	.long	.Ltmp99@IMGREL+1
	.long	1
	.long	.Ltmp100@IMGREL+1
	.long	-1
	.long	"?catch$34@?0???$?6U?$char_traits@D@std@@@std@@YAAEAV?$basic_ostream@DU?$char_traits@D@std@@@0@AEAV10@PEBD@Z@4HA"@IMGREL
	.long	4
	.section	.text,"xr",discard,"??$?6U?$char_traits@D@std@@@std@@YAAEAV?$basic_ostream@DU?$char_traits@D@std@@@0@AEAV10@PEBD@Z"

	.def	"??1sentry@?$basic_ostream@DU?$char_traits@D@std@@@std@@QEAA@XZ";
	.scl	2;
	.type	32;
	.endef
	.section	.text,"xr",discard,"??1sentry@?$basic_ostream@DU?$char_traits@D@std@@@std@@QEAA@XZ"
	.globl	"??1sentry@?$basic_ostream@DU?$char_traits@D@std@@@std@@QEAA@XZ"
	.p2align	4, 0x90
"??1sentry@?$basic_ostream@DU?$char_traits@D@std@@@std@@QEAA@XZ":
.Lfunc_begin2:
	.cv_func_id 34
	.cv_loc	34 3 113 0
.seh_proc "??1sentry@?$basic_ostream@DU?$char_traits@D@std@@@std@@QEAA@XZ"
	.seh_handler __CxxFrameHandler3, @unwind, @except
	pushq	%rbp
	.seh_pushreg %rbp
	pushq	%rsi
	.seh_pushreg %rsi
	subq	$40, %rsp
	.seh_stackalloc 40
	leaq	32(%rsp), %rbp
	.seh_setframe %rbp, 32
	.seh_endprologue
	movq	$-2, (%rbp)
	movq	%rcx, %rsi
.Ltmp191:
	.cv_loc	34 3 117 0
	callq	"?uncaught_exception@std@@YA_NXZ"
.Ltmp192:
	.cv_loc	34 3 122 0
	testb	%al, %al
	jne	.LBB2_2
.Ltmp193:
	.cv_loc	34 3 123 0
	movq	(%rsi), %rcx
	callq	*"__imp_?_Osfx@?$basic_ostream@DU?$char_traits@D@std@@@std@@QEAAXXZ"(%rip)
.Ltmp194:
.LBB2_2:
	.cv_inline_site_id 35 within 34 inlined_at 3 125 0
	.cv_loc	35 3 83 0
	movq	(%rsi), %rax
	movq	(%rax), %rcx
	movslq	4(%rcx), %rcx
.Ltmp195:
	.cv_inline_site_id 36 within 35 inlined_at 3 83 0
	.cv_loc	36 6 78 0
	movq	72(%rax,%rcx), %rcx
.Ltmp196:
	.cv_loc	35 3 84 0
	testq	%rcx, %rcx
	je	.LBB2_4
.Ltmp197:
	.cv_loc	35 3 85 0
	movq	(%rcx), %rax
.Ltmp189:
	callq	*16(%rax)
.Ltmp198:
.Ltmp190:
.LBB2_4:
	.cv_loc	34 3 125 0
	nop
	addq	$40, %rsp
	popq	%rsi
.Ltmp199:
	popq	%rbp
	retq
.Ltmp200:
	.seh_handlerdata
	.long	("$cppxdata$??1sentry@?$basic_ostream@DU?$char_traits@D@std@@@std@@QEAA@XZ")@IMGREL
	.section	.text,"xr",discard,"??1sentry@?$basic_ostream@DU?$char_traits@D@std@@@std@@QEAA@XZ"
	.seh_endproc
	.def	"?dtor$5@?0???1sentry@?$basic_ostream@DU?$char_traits@D@std@@@std@@QEAA@XZ@4HA";
	.scl	3;
	.type	32;
	.endef
	.p2align	4, 0x90
"?dtor$5@?0???1sentry@?$basic_ostream@DU?$char_traits@D@std@@@std@@QEAA@XZ@4HA":
.seh_proc "?dtor$5@?0???1sentry@?$basic_ostream@DU?$char_traits@D@std@@@std@@QEAA@XZ@4HA"
.LBB2_5:
	movq	%rdx, 16(%rsp)
	pushq	%rbp
	.seh_pushreg %rbp
.Ltmp201:
	pushq	%rsi
	.seh_pushreg %rsi
	subq	$40, %rsp
	.seh_stackalloc 40
	leaq	32(%rdx), %rbp
	.seh_endprologue
	.cv_loc	35 3 85 0
	callq	__std_terminate
	int3
.Ltmp202:
.Lfunc_end2:
	.seh_handlerdata
	.section	.text,"xr",discard,"??1sentry@?$basic_ostream@DU?$char_traits@D@std@@@std@@QEAA@XZ"
	.seh_endproc
	.section	.xdata,"dr",associative,"??1sentry@?$basic_ostream@DU?$char_traits@D@std@@@std@@QEAA@XZ"
	.p2align	2, 0x0
"$cppxdata$??1sentry@?$basic_ostream@DU?$char_traits@D@std@@@std@@QEAA@XZ":
	.long	429065506
	.long	1
	.long	("$stateUnwindMap$??1sentry@?$basic_ostream@DU?$char_traits@D@std@@@std@@QEAA@XZ")@IMGREL
	.long	0
	.long	0
	.long	3
	.long	("$ip2state$??1sentry@?$basic_ostream@DU?$char_traits@D@std@@@std@@QEAA@XZ")@IMGREL
	.long	32
	.long	0
	.long	1
"$stateUnwindMap$??1sentry@?$basic_ostream@DU?$char_traits@D@std@@@std@@QEAA@XZ":
	.long	-1
	.long	"?dtor$5@?0???1sentry@?$basic_ostream@DU?$char_traits@D@std@@@std@@QEAA@XZ@4HA"@IMGREL
"$ip2state$??1sentry@?$basic_ostream@DU?$char_traits@D@std@@@std@@QEAA@XZ":
	.long	.Lfunc_begin2@IMGREL
	.long	-1
	.long	.Ltmp189@IMGREL+1
	.long	0
	.long	.Ltmp190@IMGREL+1
	.long	-1
	.section	.text,"xr",discard,"??1sentry@?$basic_ostream@DU?$char_traits@D@std@@@std@@QEAA@XZ"

	.def	"??1_Sentry_base@?$basic_ostream@DU?$char_traits@D@std@@@std@@QEAA@XZ";
	.scl	2;
	.type	32;
	.endef
	.section	.text,"xr",discard,"??1_Sentry_base@?$basic_ostream@DU?$char_traits@D@std@@@std@@QEAA@XZ"
	.globl	"??1_Sentry_base@?$basic_ostream@DU?$char_traits@D@std@@@std@@QEAA@XZ"
	.p2align	4, 0x90
"??1_Sentry_base@?$basic_ostream@DU?$char_traits@D@std@@@std@@QEAA@XZ":
.Lfunc_begin3:
	.cv_func_id 37
	.cv_loc	37 3 82 0
.seh_proc "??1_Sentry_base@?$basic_ostream@DU?$char_traits@D@std@@@std@@QEAA@XZ"
	.seh_handler __CxxFrameHandler3, @unwind, @except
	pushq	%rbp
	.seh_pushreg %rbp
	subq	$48, %rsp
	.seh_stackalloc 48
	leaq	48(%rsp), %rbp
	.seh_setframe %rbp, 48
	.seh_endprologue
.Ltmp205:
	.cv_loc	37 3 83 0
	movq	$-2, -8(%rbp)
	movq	(%rcx), %rax
	movq	(%rax), %rcx
.Ltmp206:
	movslq	4(%rcx), %rcx
.Ltmp207:
	.cv_inline_site_id 38 within 37 inlined_at 3 83 0
	.cv_loc	38 6 78 0
	movq	72(%rax,%rcx), %rcx
.Ltmp208:
	.cv_loc	37 3 84 0
	testq	%rcx, %rcx
	je	.LBB3_2
.Ltmp209:
	.cv_loc	37 3 85 0
	movq	(%rcx), %rax
.Ltmp203:
	callq	*16(%rax)
.Ltmp210:
.Ltmp204:
.LBB3_2:
	.cv_loc	37 3 87 0
	nop
	addq	$48, %rsp
	popq	%rbp
	retq
.Ltmp211:
	.seh_handlerdata
	.long	("$cppxdata$??1_Sentry_base@?$basic_ostream@DU?$char_traits@D@std@@@std@@QEAA@XZ")@IMGREL
	.section	.text,"xr",discard,"??1_Sentry_base@?$basic_ostream@DU?$char_traits@D@std@@@std@@QEAA@XZ"
	.seh_endproc
	.def	"?dtor$3@?0???1_Sentry_base@?$basic_ostream@DU?$char_traits@D@std@@@std@@QEAA@XZ@4HA";
	.scl	3;
	.type	32;
	.endef
	.p2align	4, 0x90
"?dtor$3@?0???1_Sentry_base@?$basic_ostream@DU?$char_traits@D@std@@@std@@QEAA@XZ@4HA":
.seh_proc "?dtor$3@?0???1_Sentry_base@?$basic_ostream@DU?$char_traits@D@std@@@std@@QEAA@XZ@4HA"
.LBB3_3:
	movq	%rdx, 16(%rsp)
	pushq	%rbp
	.seh_pushreg %rbp
	subq	$32, %rsp
	.seh_stackalloc 32
	leaq	48(%rdx), %rbp
	.seh_endprologue
.Ltmp212:
	.cv_loc	37 3 85 0
	callq	__std_terminate
	int3
.Ltmp213:
.Lfunc_end3:
	.seh_handlerdata
	.section	.text,"xr",discard,"??1_Sentry_base@?$basic_ostream@DU?$char_traits@D@std@@@std@@QEAA@XZ"
	.seh_endproc
	.section	.xdata,"dr",associative,"??1_Sentry_base@?$basic_ostream@DU?$char_traits@D@std@@@std@@QEAA@XZ"
	.p2align	2, 0x0
"$cppxdata$??1_Sentry_base@?$basic_ostream@DU?$char_traits@D@std@@@std@@QEAA@XZ":
	.long	429065506
	.long	1
	.long	("$stateUnwindMap$??1_Sentry_base@?$basic_ostream@DU?$char_traits@D@std@@@std@@QEAA@XZ")@IMGREL
	.long	0
	.long	0
	.long	3
	.long	("$ip2state$??1_Sentry_base@?$basic_ostream@DU?$char_traits@D@std@@@std@@QEAA@XZ")@IMGREL
	.long	40
	.long	0
	.long	1
"$stateUnwindMap$??1_Sentry_base@?$basic_ostream@DU?$char_traits@D@std@@@std@@QEAA@XZ":
	.long	-1
	.long	"?dtor$3@?0???1_Sentry_base@?$basic_ostream@DU?$char_traits@D@std@@@std@@QEAA@XZ@4HA"@IMGREL
"$ip2state$??1_Sentry_base@?$basic_ostream@DU?$char_traits@D@std@@@std@@QEAA@XZ":
	.long	.Lfunc_begin3@IMGREL
	.long	-1
	.long	.Ltmp203@IMGREL+1
	.long	0
	.long	.Ltmp204@IMGREL+1
	.long	-1
	.section	.text,"xr",discard,"??1_Sentry_base@?$basic_ostream@DU?$char_traits@D@std@@@std@@QEAA@XZ"

	.def	main.extracted;
	.scl	3;
	.type	32;
	.endef
	.section	.text,"xr",one_only,main.extracted
	.p2align	4, 0x90
main.extracted:
.Lfunc_begin4:
	.cv_func_id 39
	.cv_loc	39 1 19 0
.seh_proc main.extracted
	pushq	%rsi
	.seh_pushreg %rsi
	pushq	%rdi
	.seh_pushreg %rdi
	pushq	%rbx
	.seh_pushreg %rbx
	subq	$208, %rsp
	.seh_stackalloc 208
	.seh_endprologue
	movq	%r8, %rsi
	movq	280(%rsp), %rbx
	movl	304(%rsp), %eax
.Ltmp214:
	movq	288(%rsp), %rdx
.Ltmp215:
	movq	272(%rsp), %r8
.Ltmp216:
	movq	__security_cookie(%rip), %r10
	xorq	%rsp, %r10
	movq	%r10, 200(%rsp)
	movl	$0, 196(%rsp)
	vmovups	(%r9), %ymm0
	vmovups	%ymm0, 144(%rsp)
	vmovups	(%r8), %ymm0
	vmovups	%ymm0, 112(%rsp)
	vmovupd	(%rdx), %ymm0
.Ltmp217:
	vmovupd	%ymm0, 80(%rsp)
.Ltmp218:
	.cv_loc	39 1 19 0
	movl	(%rcx), %edi
	movl	$0, 192(%rsp)
	movl	%eax, 188(%rsp)
	movl	$1, 184(%rsp)
	leaq	184(%rsp), %rax
.Ltmp219:
	movq	%rax, 48(%rsp)
	leaq	188(%rsp), %rax
	movq	%rax, 40(%rsp)
	leaq	192(%rsp), %rax
	movq	%rax, 32(%rsp)
	movl	$1, 64(%rsp)
	movl	$1, 56(%rsp)
	leaq	.L.kmpc_loc.19.19(%rip), %rcx
	leaq	196(%rsp), %r9
.Ltmp220:
	movl	%edi, %edx
.Ltmp221:
	movl	$34, %r8d
.Ltmp222:
	vzeroupper
	callq	__kmpc_for_static_init_4
	movl	192(%rsp), %ecx
	movl	188(%rsp), %eax
	cmpl	%eax, %ecx
	ja	.LBB4_9
.Ltmp223:
	vmovupd	(%rsi), %ymm0
	subl	%ecx, %eax
	leal	1(%rax), %ecx
	cmpl	$8, %ecx
	jae	.LBB4_3
.Ltmp224:
	vmovupd	144(%rsp), %ymm2
	vmovupd	112(%rsp), %ymm3
	vmovupd	80(%rsp), %ymm4
	jmp	.LBB4_5
.Ltmp225:
.LBB4_3:
	movl	%ecx, %edx
	shrl	$3, %edx
	vmovupd	144(%rsp), %ymm2
	vmovupd	112(%rsp), %ymm3
	vmovupd	80(%rsp), %ymm4
.Ltmp226:
	.p2align	4, 0x90
.LBB4_4:
	.cv_loc	39 1 21 0
	vfmadd213pd	%ymm3, %ymm2, %ymm0
	.cv_loc	39 1 22 0
	vfmadd213pd	%ymm3, %ymm2, %ymm0
	.cv_loc	39 1 23 0
	vfmadd213pd	%ymm3, %ymm2, %ymm0
	.cv_loc	39 1 24 0
	vfmadd213pd	%ymm4, %ymm2, %ymm0
	.cv_loc	39 1 21 0
	vfmadd213pd	%ymm3, %ymm2, %ymm0
	.cv_loc	39 1 22 0
	vfmadd213pd	%ymm3, %ymm2, %ymm0
	.cv_loc	39 1 23 0
	vfmadd213pd	%ymm3, %ymm2, %ymm0
	.cv_loc	39 1 24 0
	vfmadd213pd	%ymm4, %ymm2, %ymm0
	.cv_loc	39 1 21 0
	vfmadd213pd	%ymm3, %ymm2, %ymm0
	.cv_loc	39 1 22 0
	vfmadd213pd	%ymm3, %ymm2, %ymm0
	.cv_loc	39 1 23 0
	vfmadd213pd	%ymm3, %ymm2, %ymm0
	.cv_loc	39 1 24 0
	vfmadd213pd	%ymm4, %ymm2, %ymm0
	.cv_loc	39 1 21 0
	vfmadd213pd	%ymm3, %ymm2, %ymm0
	.cv_loc	39 1 22 0
	vfmadd213pd	%ymm3, %ymm2, %ymm0
	.cv_loc	39 1 23 0
	vfmadd213pd	%ymm3, %ymm2, %ymm0
	.cv_loc	39 1 24 0
	vfmadd213pd	%ymm4, %ymm2, %ymm0
	.cv_loc	39 1 21 0
	vfmadd213pd	%ymm3, %ymm2, %ymm0
	.cv_loc	39 1 22 0
	vfmadd213pd	%ymm3, %ymm2, %ymm0
	.cv_loc	39 1 23 0
	vfmadd213pd	%ymm3, %ymm2, %ymm0
	.cv_loc	39 1 24 0
	vfmadd213pd	%ymm4, %ymm2, %ymm0
	.cv_loc	39 1 21 0
	vfmadd213pd	%ymm3, %ymm2, %ymm0
	.cv_loc	39 1 22 0
	vfmadd213pd	%ymm3, %ymm2, %ymm0
	.cv_loc	39 1 23 0
	vfmadd213pd	%ymm3, %ymm2, %ymm0
	.cv_loc	39 1 24 0
	vfmadd213pd	%ymm4, %ymm2, %ymm0
	.cv_loc	39 1 21 0
	vfmadd213pd	%ymm3, %ymm2, %ymm0
	.cv_loc	39 1 22 0
	vfmadd213pd	%ymm3, %ymm2, %ymm0
	.cv_loc	39 1 23 0
	vfmadd213pd	%ymm3, %ymm2, %ymm0
	.cv_loc	39 1 24 0
	vfmadd213pd	%ymm4, %ymm2, %ymm0
	.cv_loc	39 1 21 0
	vfmadd213pd	%ymm3, %ymm2, %ymm0
	.cv_loc	39 1 22 0
	vfmadd213pd	%ymm3, %ymm2, %ymm0
	.cv_loc	39 1 23 0
	vmovapd	%ymm0, %ymm1
	vfmadd213pd	%ymm3, %ymm2, %ymm1
	.cv_loc	39 1 24 0
	vmovapd	%ymm2, %ymm0
	vfmadd213pd	%ymm4, %ymm1, %ymm0
	.cv_loc	39 1 25 0
	decl	%edx
	jne	.LBB4_4
.Ltmp227:
.LBB4_5:
	movl	%ecx, %edx
	andl	$-8, %edx
	cmpl	%ecx, %edx
	je	.LBB4_8
.Ltmp228:
	subl	%edx, %eax
	incl	%eax
.Ltmp229:
	.p2align	4, 0x90
.LBB4_7:
	.cv_loc	39 1 21 0
	vfmadd213pd	%ymm3, %ymm2, %ymm0
	.cv_loc	39 1 22 0
	vfmadd213pd	%ymm3, %ymm2, %ymm0
	.cv_loc	39 1 23 0
	vmovapd	%ymm0, %ymm1
	vfmadd213pd	%ymm3, %ymm2, %ymm1
	.cv_loc	39 1 24 0
	vmovapd	%ymm2, %ymm0
	vfmadd213pd	%ymm4, %ymm1, %ymm0
	.cv_loc	39 1 25 0
	decl	%eax
	jne	.LBB4_7
.Ltmp230:
.LBB4_8:
	.cv_loc	39 1 23 0
	vmovupd	%ymm0, (%rsi)
	vmovupd	%ymm1, (%rbx)
.Ltmp231:
.LBB4_9:
	.cv_loc	39 1 19 0
	leaq	.L.kmpc_loc.19.19.2(%rip), %rsi
	movq	200(%rsp), %rcx
	xorq	%rsp, %rcx
	vzeroupper
	callq	__security_check_cookie
	movq	%rsi, %rcx
	movl	%edi, %edx
	addq	$208, %rsp
	popq	%rbx
.Ltmp232:
	popq	%rdi
	popq	%rsi
	jmp	__kmpc_for_static_fini
.Ltmp233:
.Lfunc_end4:
	.seh_endproc

	.data
	.globl	"?ITERATIONS@@3JA"
	.p2align	2, 0x0
"?ITERATIONS@@3JA":
	.long	500000000

	.section	.rdata,"dr",discard,"??_C@_06ELNAEDJO@Time?3?5?$AA@"
	.globl	"??_C@_06ELNAEDJO@Time?3?5?$AA@"
"??_C@_06ELNAEDJO@Time?3?5?$AA@":
	.asciz	"Time: "

	.section	.rdata,"dr",discard,"??_C@_0P@KCFGMNPP@?5milliseconds?$DL?$AA@"
	.globl	"??_C@_0P@KCFGMNPP@?5milliseconds?$DL?$AA@"
"??_C@_0P@KCFGMNPP@?5milliseconds?$DL?$AA@":
	.asciz	" milliseconds;"

	.section	.rdata,"dr",discard,"??_C@_0O@KOPJABAP@Performance?3?5?$AA@"
	.globl	"??_C@_0O@KOPJABAP@Performance?3?5?$AA@"
"??_C@_0O@KOPJABAP@Performance?3?5?$AA@":
	.asciz	"Performance: "

	.section	.rdata,"dr",discard,"??_C@_07JIFIDNEC@?5GFLOPS?$AA@"
	.globl	"??_C@_07JIFIDNEC@?5GFLOPS?$AA@"
"??_C@_07JIFIDNEC@?5GFLOPS?$AA@":
	.asciz	" GFLOPS"

	.section	.rdata,"dr",discard,"??_C@_05PDJBBECF@pause?$AA@"
	.globl	"??_C@_05PDJBBECF@pause?$AA@"
"??_C@_05PDJBBECF@pause?$AA@":
	.asciz	"pause"

	.section	.rdata,"dr"
	.p2align	4, 0x0
.L.source.0.0:
	.ascii	";unknown;unknown;0;0;;"

	.data
	.p2align	4, 0x0
.L.kmpc_loc.0.0:
	.long	0
	.long	838860802
	.long	0
	.long	0
	.quad	.L.source.0.0

	.p2align	4, 0x0
.L.kmpc_loc.19.19:
	.long	0
	.long	838861314
	.long	0
	.long	0
	.quad	.L.source.19.19.1

	.section	.rdata,"dr"
	.p2align	4, 0x0
.L.source.19.19.1:
	.ascii	";C:\\Users\\\320\230\320\262\320\260\320\275\\Desktop\\IntrinsicsBenchmark\\IntrinsicsBenchmark/IntrinsicsBenchmark.cpp;main;19;19;;"

	.data
	.p2align	4, 0x0
.L.kmpc_loc.19.19.2:
	.long	0
	.long	838861314
	.long	0
	.long	0
	.quad	.L.source.19.19.1

	.section	.rdata,"dr"
	.p2align	4, 0x0
.L.source.19.19.3:
	.ascii	";C:\\Users\\\320\230\320\262\320\260\320\275\\Desktop\\IntrinsicsBenchmark\\IntrinsicsBenchmark/IntrinsicsBenchmark.cpp;main.extracted;19;19;;"

	.data
	.p2align	4, 0x0
.L.kmpc_loc.19.19.4:
	.long	0
	.long	838860802
	.long	0
	.long	0
	.quad	.L.source.19.19.3

	.section	.drectve,"yni"
	.ascii	" /DEFAULTLIB:msvcprtd.lib"
	.ascii	" /DEFAULTLIB:msvcrtd.lib"
	.ascii	" /DEFAULTLIB:libircmt.lib"
	.ascii	" /DEFAULTLIB:svml_dispmd.lib"
	.ascii	" /DEFAULTLIB:libdecimal.lib"
	.ascii	" /DEFAULTLIB:libmmdd.lib"
	.ascii	" /DEFAULTLIB:oldnames.lib"
	.ascii	" /DEFAULTLIB:libiomp5md.lib"
	.ascii	" /FAILIFMISMATCH:\"_MSC_VER=1900\""
	.ascii	" /FAILIFMISMATCH:\"_ITERATOR_DEBUG_LEVEL=2\""
	.ascii	" /FAILIFMISMATCH:\"RuntimeLibrary=MDd_DynamicDebug\""
	.ascii	" /FAILIFMISMATCH:\"_CRT_STDIO_ISO_WIDE_SPECIFIERS=0\""
	.ascii	" /FAILIFMISMATCH:\"annotate_string=0\""
	.ascii	" /FAILIFMISMATCH:\"annotate_vector=0\""